target datalayout = "e-m:e-p270:32:32-p271:32:32-p272:64:64-i64:64-i128:128-f80:128-n8:16:32:64-S128"
target triple = "x86_64-pc-linux-gnu"

%class.G1SurvRateGroup = type { i32, i32, double, ptr, double, ptr }

; Function Attrs: mustprogress nounwind uwtable
define hidden void @_ZN15G1SurvRateGroup19stop_adding_regionsEv(ptr noundef nonnull align 8 dereferenceable(40) %0) #1 align 2 {
  %2 = alloca i64, align 8
  %3 = alloca i8, align 1
  %4 = alloca i64, align 8
  %5 = alloca ptr, align 8
  %6 = alloca i64, align 8
  store ptr %0, ptr %5, align 8
  %7 = load ptr, ptr %5, align 8
  %8 = getelementptr inbounds %class.G1SurvRateGroup, ptr %7, i32 0, i32 1
  %9 = load i32, ptr %8, align 4
  %10 = getelementptr inbounds %class.G1SurvRateGroup, ptr %7, i32 0, i32 0
  %11 = load i32, ptr %10, align 8
  %12 = icmp ugt i32 %9, %11
  br i1 %12, label %13, label %87

13:                                               ; preds = %1
  %14 = getelementptr inbounds %class.G1SurvRateGroup, ptr %7, i32 0, i32 3
  %15 = load ptr, ptr %14, align 8
  %16 = getelementptr inbounds %class.G1SurvRateGroup, ptr %7, i32 0, i32 1
  %17 = load i32, ptr %16, align 4
  %18 = zext i32 %17 to i64
  %19 = mul i64 %18, 8
  %20 = call noundef ptr @_Z14ReallocateHeapPcm8MEMFLAGSN17AllocFailStrategy13AllocFailEnumE(ptr noundef %15, i64 noundef %19, i8 noundef zeroext 5, i32 noundef 0)
  %21 = getelementptr inbounds %class.G1SurvRateGroup, ptr %7, i32 0, i32 3
  store ptr %20, ptr %21, align 8
  %22 = getelementptr inbounds %class.G1SurvRateGroup, ptr %7, i32 0, i32 5
  %23 = load ptr, ptr %22, align 8
  %24 = getelementptr inbounds %class.G1SurvRateGroup, ptr %7, i32 0, i32 1
  %25 = load i32, ptr %24, align 4
  %26 = zext i32 %25 to i64
  %27 = mul i64 %26, 8
  %28 = call noundef ptr @_Z14ReallocateHeapPcm8MEMFLAGSN17AllocFailStrategy13AllocFailEnumE(ptr noundef %23, i64 noundef %27, i8 noundef zeroext 5, i32 noundef 0)
  %29 = getelementptr inbounds %class.G1SurvRateGroup, ptr %7, i32 0, i32 5
  store ptr %28, ptr %29, align 8
  %30 = getelementptr inbounds %class.G1SurvRateGroup, ptr %7, i32 0, i32 0
  %31 = load i32, ptr %30, align 8
  %32 = zext i32 %31 to i64
  store i64 %32, ptr %6, align 8
  br label %33

33:                                               ; preds = %77, %13
  %34 = load i64, ptr %6, align 8
  %35 = getelementptr inbounds %class.G1SurvRateGroup, ptr %7, i32 0, i32 1
  %36 = load i32, ptr %35, align 4
  %37 = zext i32 %36 to i64
  %38 = icmp ult i64 %34, %37
  br i1 %38, label %39, label %80

39:                                               ; preds = %33
  store i64 72, ptr %4, align 8
  %40 = load i64, ptr %4, align 8
  store i64 %40, ptr %2, align 8
  store i8 9, ptr %3, align 1
  %41 = load i64, ptr %2, align 8
  %42 = load i8, ptr %3, align 1
  %43 = call noundef ptr @_Z12AllocateHeapm8MEMFLAGSN17AllocFailStrategy13AllocFailEnumE(i64 noundef %41, i8 noundef zeroext %42, i32 noundef 0) #6
  call void @_ZN12TruncatedSeqC1Eid(ptr noundef nonnull align 8 dereferenceable(72) %43, i32 noundef 10, double noundef 3.000000e-01)
  %44 = getelementptr inbounds %class.G1SurvRateGroup, ptr %7, i32 0, i32 5
  %45 = load ptr, ptr %44, align 8
  %46 = load i64, ptr %6, align 8
  %47 = getelementptr inbounds ptr, ptr %45, i64 %46
  store ptr %43, ptr %47, align 8
  %48 = getelementptr inbounds %class.G1SurvRateGroup, ptr %7, i32 0, i32 5
  %49 = load ptr, ptr %48, align 8
  %50 = load i64, ptr %6, align 8
  %51 = getelementptr inbounds ptr, ptr %49, i64 %50
  %52 = load ptr, ptr %51, align 8
  %53 = getelementptr inbounds %class.G1SurvRateGroup, ptr %7, i32 0, i32 2
  %54 = load double, ptr %53, align 8
  %55 = load ptr, ptr %52, align 8
  %56 = getelementptr inbounds ptr, ptr %55, i64 1
  %57 = load ptr, ptr %56, align 8
  call void %57(ptr noundef nonnull align 8 dereferenceable(72) %52, double noundef %54)
  %58 = load i64, ptr %6, align 8
  %59 = icmp eq i64 %58, 0
  br i1 %59, label %60, label %61

60:                                               ; preds = %39
  br label %68

61:                                               ; preds = %39
  %62 = getelementptr inbounds %class.G1SurvRateGroup, ptr %7, i32 0, i32 3
  %63 = load ptr, ptr %62, align 8
  %64 = load i64, ptr %6, align 8
  %65 = sub i64 %64, 1
  %66 = getelementptr inbounds double, ptr %63, i64 %65
  %67 = load double, ptr %66, align 8
  br label %68

68:                                               ; preds = %61, %60
  %69 = phi double [ 0.000000e+00, %60 ], [ %67, %61 ]
  %70 = getelementptr inbounds %class.G1SurvRateGroup, ptr %7, i32 0, i32 2
  %71 = load double, ptr %70, align 8
  %72 = fadd double %69, %71
  %73 = getelementptr inbounds %class.G1SurvRateGroup, ptr %7, i32 0, i32 3
  %74 = load ptr, ptr %73, align 8
  %75 = load i64, ptr %6, align 8
  %76 = getelementptr inbounds double, ptr %74, i64 %75
  store double %72, ptr %76, align 8
  br label %77

77:                                               ; preds = %68
  %78 = load i64, ptr %6, align 8
  %79 = add i64 %78, 1
  store i64 %79, ptr %6, align 8
  br label %33, !llvm.loop !8

80:                                               ; preds = %33
  %81 = getelementptr inbounds %class.G1SurvRateGroup, ptr %7, i32 0, i32 2
  %82 = load double, ptr %81, align 8
  %83 = getelementptr inbounds %class.G1SurvRateGroup, ptr %7, i32 0, i32 4
  store double %82, ptr %83, align 8
  %84 = getelementptr inbounds %class.G1SurvRateGroup, ptr %7, i32 0, i32 1
  %85 = load i32, ptr %84, align 4
  %86 = getelementptr inbounds %class.G1SurvRateGroup, ptr %7, i32 0, i32 0
  store i32 %85, ptr %86, align 8
  br label %87

87:                                               ; preds = %80, %1
  ret void
}