; Function Attrs: mustprogress nounwind uwtable
define hidden void @_ZN15G1SurvRateGroup19stop_adding_regionsEv(ptr nocapture noundef nonnull align 8 dereferenceable(40) %0) local_unnamed_addr #0 align 2 {
  %2 = getelementptr inbounds i8, ptr %0, i64 4
  %3 = load i32, ptr %2, align 4
  %4 = load i32, ptr %0, align 8
  %5 = icmp ugt i32 %3, %4
  br i1 %5, label %6, label %51

6:                                                ; preds = %1
  %7 = getelementptr inbounds i8, ptr %0, i64 16
  %8 = load ptr, ptr %7, align 8
  %9 = zext i32 %3 to i64
  %10 = shl nuw nsw i64 %9, 3
  %11 = tail call noundef ptr @_Z14ReallocateHeapPcm8MEMFLAGSN17AllocFailStrategy13AllocFailEnumE(ptr noundef %8, i64 noundef %10, i8 noundef zeroext 5, i32 noundef 0) #9
  store ptr %11, ptr %7, align 8
  %12 = getelementptr inbounds i8, ptr %0, i64 32
  %13 = load ptr, ptr %12, align 8
  %14 = load i32, ptr %2, align 4
  %15 = zext i32 %14 to i64
  %16 = shl nuw nsw i64 %15, 3
  %17 = tail call noundef ptr @_Z14ReallocateHeapPcm8MEMFLAGSN17AllocFailStrategy13AllocFailEnumE(ptr noundef %13, i64 noundef %16, i8 noundef zeroext 5, i32 noundef 0) #9
  store ptr %17, ptr %12, align 8
  %18 = load i32, ptr %0, align 8
  %19 = load i32, ptr %2, align 4
  %20 = icmp ult i32 %18, %19
  br i1 %20, label %.lr.ph, label %._crit_edge

.lr.ph:                                           ; preds = %6
  %21 = zext i32 %18 to i64
  %22 = getelementptr inbounds i8, ptr %0, i64 8
  br label %23

23:                                               ; preds = %.lr.ph, %39
  %.011 = phi i64 [ %21, %.lr.ph ], [ %44, %39 ]
  %24 = tail call noundef ptr @_Z12AllocateHeapm8MEMFLAGSN17AllocFailStrategy13AllocFailEnumE(i64 noundef 72, i8 noundef zeroext 9, i32 noundef 0) #9
  tail call void @_ZN12TruncatedSeqC1Eid(ptr noundef nonnull align 8 dereferenceable(72) %24, i32 noundef 10, double noundef 3.000000e-01) #9
  %25 = load ptr, ptr %12, align 8
  %26 = getelementptr inbounds ptr, ptr %25, i64 %.011
  store ptr %24, ptr %26, align 8
  %27 = load ptr, ptr %12, align 8
  %28 = getelementptr inbounds ptr, ptr %27, i64 %.011
  %29 = load ptr, ptr %28, align 8
  %30 = load double, ptr %22, align 8
  %31 = load ptr, ptr %29, align 8
  %32 = getelementptr inbounds i8, ptr %31, i64 8
  %33 = load ptr, ptr %32, align 8
  tail call void %33(ptr noundef nonnull align 8 dereferenceable(72) %29, double noundef %30) #9
  %34 = icmp eq i64 %.011, 0
  %.pre = load ptr, ptr %7, align 8
  br i1 %34, label %39, label %35

35:                                               ; preds = %23
  %36 = getelementptr double, ptr %.pre, i64 %.011
  %37 = getelementptr i8, ptr %36, i64 -8
  %38 = load double, ptr %37, align 8
  br label %39

39:                                               ; preds = %23, %35
  %40 = phi double [ %38, %35 ], [ 0.000000e+00, %23 ]
  %41 = load double, ptr %22, align 8
  %42 = fadd double %40, %41
  %43 = getelementptr inbounds double, ptr %.pre, i64 %.011
  store double %42, ptr %43, align 8
  %44 = add nuw nsw i64 %.011, 1
  %45 = load i32, ptr %2, align 4
  %46 = zext i32 %45 to i64
  %47 = icmp ult i64 %44, %46
  br i1 %47, label %23, label %._crit_edge, !llvm.loop !8

._crit_edge:                                      ; preds = %39, %6
  %.lcssa = phi i32 [ %19, %6 ], [ %45, %39 ]
  %48 = getelementptr inbounds i8, ptr %0, i64 8
  %49 = load double, ptr %48, align 8
  %50 = getelementptr inbounds i8, ptr %0, i64 24
  store double %49, ptr %50, align 8
  store i32 %.lcssa, ptr %0, align 8
  br label %51

51:                                               ; preds = %._crit_edge, %1
  ret void
}